Certificate:
    Data:
        Version: 3 (0x2)
        Serial Number:
            af:04:53:75:f7:34:d0:92:b2:6b:0a:7c:6f:1d:42:f1
        Signature Algorithm: sha256WithRSAEncryption
        Issuer: CN=serge
        Validity
            Not Before: Sep  6 20:00:51 2021 GMT
            Not After : Dec 10 20:00:51 2023 GMT
        Subject: CN=client1.domain.tld
        Subject Public Key Info:
            Public Key Algorithm: rsaEncryption
                RSA Public-Key: (2048 bit)
                Modulus:
                    00:c7:8a:71:5b:d3:3f:ff:e7:a6:82:2e:76:02:63:
                    13:23:51:d3:c1:35:b5:77:d4:0b:f0:ed:d2:a0:bf:
                    1c:9a:1b:87:5f:fc:0b:be:7b:7f:8b:86:4e:98:58:
                    38:6f:85:74:88:82:86:c3:6f:c9:73:c5:b5:6e:a7:
                    fa:da:cd:c0:3a:3c:da:8a:4a:79:cf:c3:51:b1:ce:
                    2b:d2:23:25:c5:85:cd:12:20:bd:7f:84:65:00:ec:
                    00:1c:84:c2:d6:66:58:a1:62:7c:1b:2b:57:fd:a7:
                    63:e3:fe:94:7e:bd:ea:49:0d:3f:a9:e0:df:f5:5a:
                    26:dc:7c:79:6d:b9:c1:e6:7c:75:44:5b:85:f6:9d:
                    84:cb:a2:f7:1c:89:b2:7b:dc:e9:2a:bd:60:e5:f5:
                    e4:31:a7:7c:3a:0d:ff:96:99:af:ec:b0:f3:4e:b5:
                    8a:bf:08:89:76:7a:c2:6e:52:f9:5a:56:60:8b:30:
                    10:69:a1:ef:97:ad:98:f4:fe:8c:11:54:14:c2:df:
                    38:d2:4c:d1:e7:9e:0a:2a:57:76:a2:f8:51:1e:44:
                    cd:8c:f6:a9:d8:a8:d0:a1:d0:aa:f9:e1:3b:03:a4:
                    f8:dc:24:05:65:b8:bd:a6:71:59:ca:c7:52:7c:f9:
                    e1:5c:d8:96:ad:35:5c:c5:f3:d7:7e:d3:9c:21:3b:
                    a4:d3
                Exponent: 65537 (0x10001)
        X509v3 extensions:
            X509v3 Basic Constraints: 
                CA:FALSE
            X509v3 Subject Key Identifier: 
                4F:F2:6F:25:F6:51:96:60:7A:D5:FB:BB:62:E2:EE:AF:5E:9D:BE:C3
            X509v3 Authority Key Identifier: 
                keyid:8F:0A:0C:53:B5:AD:31:3A:69:62:47:87:61:52:4F:1C:22:3A:D3:AF
                DirName:/CN=serge
                serial:73:78:DC:9F:BF:F1:D4:16:36:30:E6:98:13:C8:AF:85:3A:0D:97:CB

            X509v3 Extended Key Usage: 
                TLS Web Client Authentication
            X509v3 Key Usage: 
                Digital Signature
    Signature Algorithm: sha256WithRSAEncryption
         52:21:ad:d7:ff:3d:5a:ff:d5:6d:fd:5c:dc:da:8e:e9:1d:98:
         8f:67:c9:2a:ce:5c:1d:ef:3f:1d:5e:c6:d0:08:5f:9f:3d:0d:
         c1:91:9d:46:7c:74:8d:db:b9:6c:80:af:fc:72:04:b8:e2:13:
         7c:e1:d1:69:9e:28:13:21:e8:61:bc:3d:c4:23:4a:58:53:03:
         dd:95:be:24:08:be:69:b2:85:8f:eb:b4:39:b6:29:ac:c0:a6:
         65:fb:ff:b8:ab:af:d1:6e:ba:45:1c:e6:20:e4:80:a5:59:d2:
         f4:dd:eb:d9:9b:ae:89:f5:6e:22:0b:c5:a2:9e:6c:7a:a6:43:
         b0:c0:dd:20:e5:e6:9b:88:37:78:56:d1:f6:7d:ca:41:71:2f:
         53:08:c3:31:73:a1:3a:17:10:68:73:c0:34:68:0a:11:88:01:
         ab:a4:51:44:a5:4b:bf:b0:0d:4a:45:3c:3f:17:a7:44:fe:ca:
         11:c4:63:0c:d9:4f:e8:0d:58:6d:ba:15:89:12:14:ee:0b:e0:
         59:43:ed:f7:44:cb:56:48:4e:5f:f9:18:db:42:99:c3:43:53:
         73:8f:79:17:2c:28:6d:bf:c2:50:16:7a:02:c6:63:e8:2e:97:
         77:5d:e0:94:b5:d4:b7:a0:fb:56:58:3a:05:30:7c:04:3d:56:
         61:73:15:3f
-----BEGIN CERTIFICATE-----
MIIDVTCCAj2gAwIBAgIRAK8EU3X3NNCSsmsKfG8dQvEwDQYJKoZIhvcNAQELBQAw
EDEOMAwGA1UEAwwFc2VyZ2UwHhcNMjEwOTA2MjAwMDUxWhcNMjMxMjEwMjAwMDUx
WjAdMRswGQYDVQQDDBJjbGllbnQxLmRvbWFpbi50bGQwggEiMA0GCSqGSIb3DQEB
AQUAA4IBDwAwggEKAoIBAQDHinFb0z//56aCLnYCYxMjUdPBNbV31Avw7dKgvxya
G4df/Au+e3+Lhk6YWDhvhXSIgobDb8lzxbVup/razcA6PNqKSnnPw1GxzivSIyXF
hc0SIL1/hGUA7AAchMLWZlihYnwbK1f9p2Pj/pR+vepJDT+p4N/1WibcfHltucHm
fHVEW4X2nYTLovccibJ73OkqvWDl9eQxp3w6Df+Wma/ssPNOtYq/CIl2esJuUvla
VmCLMBBpoe+XrZj0/owRVBTC3zjSTNHnngoqV3ai+FEeRM2M9qnYqNCh0Kr54TsD
pPjcJAVluL2mcVnKx1J8+eFc2JatNVzF89d+05whO6TTAgMBAAGjgZwwgZkwCQYD
VR0TBAIwADAdBgNVHQ4EFgQUT/JvJfZRlmB61fu7YuLur16dvsMwSwYDVR0jBEQw
QoAUjwoMU7WtMTppYkeHYVJPHCI606+hFKQSMBAxDjAMBgNVBAMMBXNlcmdlghRz
eNyfv/HUFjYw5pgTyK+FOg2XyzATBgNVHSUEDDAKBggrBgEFBQcDAjALBgNVHQ8E
BAMCB4AwDQYJKoZIhvcNAQELBQADggEBAFIhrdf/PVr/1W39XNzajukdmI9nySrO
XB3vPx1extAIX589DcGRnUZ8dI3buWyAr/xyBLjiE3zh0WmeKBMh6GG8PcQjSlhT
A92VviQIvmmyhY/rtDm2KazApmX7/7irr9FuukUc5iDkgKVZ0vTd69mbron1biIL
xaKebHqmQ7DA3SDl5puIN3hW0fZ9ykFxL1MIwzFzoToXEGhzwDRoChGIAaukUUSl
S7+wDUpFPD8Xp0T+yhHEYwzZT+gNWG26FYkSFO4L4FlD7fdEy1ZITl/5GNtCmcND
U3OPeRcsKG2/wlAWegLGY+gul3dd4JS11Leg+1ZYOgUwfAQ9VmFzFT8=
-----END CERTIFICATE-----
